target datalayout = "e-m:e-p270:32:32-p271:32:32-p272:64:64-i64:64-i128:128-f80:128-n8:16:32:64-S128"
target triple = "x86_64-pc-linux-gnu"

%struct.stroke_t = type { i64, ptr }
%struct.pointf_s = type { double, double }

@stderr = external global ptr, align 8
@.str.1 = private unnamed_addr constant [58 x i8] c"integer overflow when trying to allocate %zu * %zu bytes\0A\00", align 1
@.str.2 = private unnamed_addr constant [49 x i8] c"out of memory when trying to allocate %zu bytes\0A\00", align 1

; Function Attrs: inlinehint nounwind uwtable
define internal ptr @gv_realloc(ptr noundef %0, i64 noundef %1, i64 noundef %2) #2 {
  %4 = alloca ptr, align 8
  %5 = alloca ptr, align 8
  %6 = alloca i64, align 8
  %7 = alloca i64, align 8
  %8 = alloca ptr, align 8
  store ptr %0, ptr %5, align 8, !tbaa !8
  store i64 %1, ptr %6, align 8, !tbaa !11
  store i64 %2, ptr %7, align 8, !tbaa !11
  %9 = load i64, ptr %7, align 8, !tbaa !11
  %10 = icmp eq i64 %9, 0
  br i1 %10, label %11, label %13

11:                                               ; preds = %3
  %12 = load ptr, ptr %5, align 8, !tbaa !8
  call void @free(ptr noundef %12) #11
  store ptr null, ptr %4, align 8
  br label %36

13:                                               ; preds = %3
  call void @llvm.lifetime.start.p0(i64 8, ptr %8) #11
  %14 = load ptr, ptr %5, align 8, !tbaa !8
  %15 = load i64, ptr %7, align 8, !tbaa !11
  %16 = call ptr @realloc(ptr noundef %14, i64 noundef %15) #13
  store ptr %16, ptr %8, align 8, !tbaa !8
  %17 = load ptr, ptr %8, align 8, !tbaa !8
  %18 = icmp eq ptr %17, null
  br i1 %18, label %19, label %23

19:                                               ; preds = %13
  %20 = load ptr, ptr @stderr, align 8, !tbaa !54
  %21 = load i64, ptr %7, align 8, !tbaa !11
  %22 = call i32 (ptr, ptr, ...) @fprintf(ptr noundef %20, ptr noundef @.str.2, i64 noundef %21) #11
  call void @graphviz_exit(i32 noundef 1) #12
  unreachable

23:                                               ; preds = %13
  %24 = load i64, ptr %7, align 8, !tbaa !11
  %25 = load i64, ptr %6, align 8, !tbaa !11
  %26 = icmp ugt i64 %24, %25
  br i1 %26, label %27, label %34

27:                                               ; preds = %23
  %28 = load ptr, ptr %8, align 8, !tbaa !8
  %29 = load i64, ptr %6, align 8, !tbaa !11
  %30 = getelementptr inbounds nuw i8, ptr %28, i64 %29
  %31 = load i64, ptr %7, align 8, !tbaa !11
  %32 = load i64, ptr %6, align 8, !tbaa !11
  %33 = sub i64 %31, %32
  call void @llvm.memset.p0.i64(ptr align 1 %30, i8 0, i64 %33, i1 false)
  br label %34

34:                                               ; preds = %27, %23
  %35 = load ptr, ptr %8, align 8, !tbaa !8
  store ptr %35, ptr %4, align 8
  call void @llvm.lifetime.end.p0(i64 8, ptr %8) #11
  br label %36

36:                                               ; preds = %34, %11
  %37 = load ptr, ptr %4, align 8
  ret ptr %37
}

; Function Attrs: inlinehint nounwind uwtable
define internal ptr @gv_recalloc(ptr noundef %0, i64 noundef %1, i64 noundef %2, i64 noundef %3) #2 {
  %5 = alloca ptr, align 8
  %6 = alloca i64, align 8
  %7 = alloca i64, align 8
  %8 = alloca i64, align 8
  store ptr %0, ptr %5, align 8, !tbaa !8
  store i64 %1, ptr %6, align 8, !tbaa !11
  store i64 %2, ptr %7, align 8, !tbaa !11
  store i64 %3, ptr %8, align 8, !tbaa !11
  %9 = load i64, ptr %7, align 8, !tbaa !11
  %10 = load i64, ptr %8, align 8, !tbaa !11
  %11 = udiv i64 -1, %10
  %12 = icmp ugt i64 %9, %11
  br i1 %12, label %13, label %18

13:                                               ; preds = %4
  %14 = load ptr, ptr @stderr, align 8, !tbaa !54
  %15 = load i64, ptr %7, align 8, !tbaa !11
  %16 = load i64, ptr %8, align 8, !tbaa !11
  %17 = call i32 (ptr, ptr, ...) @fprintf(ptr noundef %14, ptr noundef @.str.1, i64 noundef %15, i64 noundef %16) #11
  call void @graphviz_exit(i32 noundef 1) #12
  unreachable

18:                                               ; preds = %4
  %19 = load ptr, ptr %5, align 8, !tbaa !8
  %20 = load i64, ptr %6, align 8, !tbaa !11
  %21 = load i64, ptr %8, align 8, !tbaa !11
  %22 = mul i64 %20, %21
  %23 = load i64, ptr %7, align 8, !tbaa !11
  %24 = load i64, ptr %8, align 8, !tbaa !11
  %25 = mul i64 %23, %24
  %26 = call ptr @gv_realloc(ptr noundef %19, i64 noundef %22, i64 noundef %25)
  ret ptr %26
}

; Function Attrs: nounwind uwtable
define internal void @addto(ptr noundef %0, double noundef %1, double noundef %2) #0 {
  %4 = alloca ptr, align 8
  %5 = alloca double, align 8
  %6 = alloca double, align 8
  %7 = alloca %struct.pointf_s, align 8
  store ptr %0, ptr %4, align 8, !tbaa !47
  store double %1, ptr %5, align 8, !tbaa !9
  store double %2, ptr %6, align 8, !tbaa !9
  call void @llvm.lifetime.start.p0(i64 16, ptr %7) #11
  %8 = load ptr, ptr %4, align 8, !tbaa !47
  %9 = getelementptr inbounds nuw %struct.stroke_t, ptr %8, i32 0, i32 1
  %10 = load ptr, ptr %9, align 8, !tbaa !49
  %11 = load ptr, ptr %4, align 8, !tbaa !47
  %12 = getelementptr inbounds nuw %struct.stroke_t, ptr %11, i32 0, i32 0
  %13 = load i64, ptr %12, align 8, !tbaa !51
  %14 = load ptr, ptr %4, align 8, !tbaa !47
  %15 = getelementptr inbounds nuw %struct.stroke_t, ptr %14, i32 0, i32 0
  %16 = load i64, ptr %15, align 8, !tbaa !51
  %17 = add i64 %16, 1
  %18 = call ptr @gv_recalloc(ptr noundef %10, i64 noundef %13, i64 noundef %17, i64 noundef 16)
  %19 = load ptr, ptr %4, align 8, !tbaa !47
  %20 = getelementptr inbounds nuw %struct.stroke_t, ptr %19, i32 0, i32 1
  store ptr %18, ptr %20, align 8, !tbaa !49
  %21 = load double, ptr %5, align 8, !tbaa !9
  %22 = getelementptr inbounds nuw %struct.pointf_s, ptr %7, i32 0, i32 0
  store double %21, ptr %22, align 8, !tbaa !52
  %23 = load double, ptr %6, align 8, !tbaa !9
  %24 = getelementptr inbounds nuw %struct.pointf_s, ptr %7, i32 0, i32 1
  store double %23, ptr %24, align 8, !tbaa !53
  %25 = load ptr, ptr %4, align 8, !tbaa !47
  %26 = getelementptr inbounds nuw %struct.stroke_t, ptr %25, i32 0, i32 1
  %27 = load ptr, ptr %26, align 8, !tbaa !49
  %28 = load ptr, ptr %4, align 8, !tbaa !47
  %29 = getelementptr inbounds nuw %struct.stroke_t, ptr %28, i32 0, i32 0
  %30 = load i64, ptr %29, align 8, !tbaa !51
  %31 = add i64 %30, 1
  store i64 %31, ptr %29, align 8, !tbaa !51
  %32 = getelementptr inbounds nuw %struct.pointf_s, ptr %27, i64 %30
  call void @llvm.memcpy.p0.p0.i64(ptr align 8 %32, ptr align 8 %7, i64 16, i1 false), !tbaa.struct !40
  call void @llvm.lifetime.end.p0(i64 16, ptr %7) #11
  ret void
}