; Function Attrs: nounwind uwtable
define internal fastcc void @addto(ptr noundef nonnull captures(none) %0, double noundef %1, double noundef %2) unnamed_addr #0 {
  %4 = getelementptr inbounds nuw i8, ptr %0, i64 8
  %5 = load ptr, ptr %4, align 8, !tbaa !44
  %6 = load i64, ptr %0, align 8, !tbaa !46
  %7 = add i64 %6, 1
  %8 = icmp ugt i64 %7, 1152921504606846975
  br i1 %8, label %9, label %12

9:                                                ; preds = %3
  %10 = load ptr, ptr @stderr, align 8, !tbaa !17
  %11 = tail call i32 (ptr, ptr, ...) @fprintf(ptr noundef %10, ptr noundef nonnull @.str.1, i64 noundef %7, i64 noundef 16) #15
  tail call fastcc void @graphviz_exit() #16
  unreachable

12:                                               ; preds = %3
  %13 = shl i64 %6, 4
  %14 = shl nuw i64 %7, 4
  %15 = icmp eq i64 %7, 0
  br i1 %15, label %16, label %17

16:                                               ; preds = %12
  tail call void @free(ptr noundef %5) #14
  br label %gv_recalloc.exit

17:                                               ; preds = %12
  %18 = tail call ptr @realloc(ptr noundef %5, i64 noundef range(i64 0, -15) %14) #17
  %19 = icmp eq ptr %18, null
  br i1 %19, label %20, label %23

20:                                               ; preds = %17
  %21 = load ptr, ptr @stderr, align 8, !tbaa !17
  %22 = tail call i32 (ptr, ptr, ...) @fprintf(ptr noundef %21, ptr noundef nonnull @.str.2, i64 noundef range(i64 0, -15) %14) #15
  tail call fastcc void @graphviz_exit() #16
  unreachable

23:                                               ; preds = %17
  %24 = icmp ugt i64 %14, %13
  br i1 %24, label %25, label %gv_recalloc.exit

25:                                               ; preds = %23
  %26 = getelementptr inbounds nuw i8, ptr %18, i64 %13
  tail call void @llvm.memset.p0.i64(ptr noundef nonnull align 1 dereferenceable(16) %26, i8 0, i64 16, i1 false)
  br label %gv_recalloc.exit

gv_recalloc.exit:                                 ; preds = %16, %23, %25
  %.0.i.i = phi ptr [ null, %16 ], [ %18, %25 ], [ %18, %23 ]
  store ptr %.0.i.i, ptr %4, align 8, !tbaa !44
  %27 = load i64, ptr %0, align 8, !tbaa !46
  %28 = add i64 %27, 1
  store i64 %28, ptr %0, align 8, !tbaa !46
  %29 = getelementptr inbounds nuw %struct.pointf_s, ptr %.0.i.i, i64 %27
  store double %1, ptr %29, align 8, !tbaa !20
  %.sroa.4.0..sroa_idx = getelementptr inbounds nuw i8, ptr %29, i64 8
  store double %2, ptr %.sroa.4.0..sroa_idx, align 8, !tbaa !20
  ret void
}